target datalayout = "e-m:e-p270:32:32-p271:32:32-p272:64:64-i64:64-i128:128-f80:128-n8:16:32:64-S128"
target triple = "x86_64-unknown-linux-gnu"

%"class.base::debug::StackTrace" = type { [62 x ptr], i64 }

; Function Attrs: mustprogress nounwind uwtable
define linkonce_odr dso_local noundef nonnull align 8 dereferenceable(8) ptr @_ZSt3minImERKT_S2_S2_(ptr noundef nonnull align 8 dereferenceable(8) %__a, ptr noundef nonnull align 8 dereferenceable(8) %__b) #0 comdat {
entry:
  %retval = alloca ptr, align 8
  %__a.addr = alloca ptr, align 8
  %__b.addr = alloca ptr, align 8
  store ptr %__a, ptr %__a.addr, align 8
  store ptr %__b, ptr %__b.addr, align 8
  %0 = load ptr, ptr %__b.addr, align 8
  %1 = load i64, ptr %0, align 8
  %2 = load ptr, ptr %__a.addr, align 8
  %3 = load i64, ptr %2, align 8
  %cmp = icmp ult i64 %1, %3
  br i1 %cmp, label %if.then, label %if.end

if.then:                                          ; preds = %entry
  %4 = load ptr, ptr %__b.addr, align 8
  store ptr %4, ptr %retval, align 8
  br label %return

if.end:                                           ; preds = %entry
  %5 = load ptr, ptr %__a.addr, align 8
  store ptr %5, ptr %retval, align 8
  br label %return

return:                                           ; preds = %if.end, %if.then
  %6 = load ptr, ptr %retval, align 8
  ret ptr %6
}

; Function Attrs: mustprogress uwtable
define dso_local void @_ZN4base5debug10StackTraceC2EPKPKvm(ptr noundef nonnull align 8 dereferenceable(504) %this, ptr noundef %trace, i64 noundef %count) unnamed_addr #1 align 2 {
entry:
  %this.addr = alloca ptr, align 8
  %trace.addr = alloca ptr, align 8
  %count.addr = alloca i64, align 8
  %ref.tmp = alloca i64, align 8
  store ptr %this, ptr %this.addr, align 8
  store ptr %trace, ptr %trace.addr, align 8
  store i64 %count, ptr %count.addr, align 8
  %this1 = load ptr, ptr %this.addr, align 8
  store i64 62, ptr %ref.tmp, align 8
  %call = call noundef nonnull align 8 dereferenceable(8) ptr @_ZSt3minImERKT_S2_S2_(ptr noundef nonnull align 8 dereferenceable(8) %count.addr, ptr noundef nonnull align 8 dereferenceable(8) %ref.tmp)
  %0 = load i64, ptr %call, align 8
  store i64 %0, ptr %count.addr, align 8
  %1 = load i64, ptr %count.addr, align 8
  %tobool = icmp ne i64 %1, 0
  br i1 %tobool, label %if.then, label %if.end

if.then:                                          ; preds = %entry
  %trace_ = getelementptr inbounds %"class.base::debug::StackTrace", ptr %this1, i32 0, i32 0
  %arraydecay = getelementptr inbounds [62 x ptr], ptr %trace_, i64 0, i64 0
  %2 = load ptr, ptr %trace.addr, align 8
  %3 = load i64, ptr %count.addr, align 8
  %mul = mul i64 %3, 8
  call void @llvm.memcpy.p0.p0.i64(ptr align 8 %arraydecay, ptr align 8 %2, i64 %mul, i1 false)
  br label %if.end

if.end:                                           ; preds = %if.then, %entry
  %4 = load i64, ptr %count.addr, align 8
  %count_ = getelementptr inbounds %"class.base::debug::StackTrace", ptr %this1, i32 0, i32 1
  store i64 %4, ptr %count_, align 8
  ret void
}