; Function Attrs: mustprogress nofree norecurse nosync nounwind willreturn memory(argmem: readwrite) uwtable
define dso_local void @_ZN4base5debug10StackTraceC2EPKPKvm(ptr noundef nonnull writeonly align 8 captures(none) dereferenceable(504) initializes((496, 504)) %this, ptr noundef readonly captures(none) %trace, i64 noundef %count) unnamed_addr #1 align 2 {
entry:
  %.sroa.speculated = tail call i64 @llvm.umin.i64(i64 %count, i64 62)
  %tobool.not = icmp eq i64 %count, 0
  br i1 %tobool.not, label %if.end, label %if.then

if.then:                                          ; preds = %entry
  %mul = shl nuw nsw i64 %.sroa.speculated, 3
  tail call void @llvm.memcpy.p0.p0.i64(ptr nonnull align 8 %this, ptr align 8 %trace, i64 %mul, i1 false)
  br label %if.end

if.end:                                           ; preds = %if.then, %entry
  %count_ = getelementptr inbounds nuw i8, ptr %this, i64 496
  store i64 %.sroa.speculated, ptr %count_, align 8
  ret void
}